target datalayout = "e-m:e-p270:32:32-p271:32:32-p272:64:64-i64:64-i128:128-f80:128-n8:16:32:64-S128"
target triple = "x86_64-pc-linux-gnu"

%struct.MpegTSContext = type { ptr, ptr, i32, i64, i32, i32, i32, i64, i64, i32, ptr, i64, i32, i32, i32, i32, i32, i32, i32, i32, i32, ptr, [8192 x i8], [8192 x ptr], i32, ptr, [32 x ptr] }

; Function Attrs: nounwind uwtable
define i32 @avpriv_mpegts_parse_packet(ptr noundef %0, ptr noundef %1, ptr noundef %2, i32 noundef %3) #0 {
  %5 = alloca i32, align 4
  %6 = alloca ptr, align 8
  %7 = alloca ptr, align 8
  %8 = alloca ptr, align 8
  %9 = alloca i32, align 4
  %10 = alloca i32, align 4
  %11 = alloca i32, align 4
  store ptr %0, ptr %6, align 8, !tbaa !20
  store ptr %1, ptr %7, align 8, !tbaa !164
  store ptr %2, ptr %8, align 8, !tbaa !16
  store i32 %3, ptr %9, align 4, !tbaa !11
  call void @llvm.lifetime.start.p0(i64 4, ptr %10) #12
  %12 = load i32, ptr %9, align 4, !tbaa !11
  store i32 %12, ptr %10, align 4, !tbaa !11
  %13 = load ptr, ptr %7, align 8, !tbaa !164
  %14 = load ptr, ptr %6, align 8, !tbaa !20
  %15 = getelementptr inbounds nuw %struct.MpegTSContext, ptr %14, i32 0, i32 10
  store ptr %13, ptr %15, align 8, !tbaa !160
  br label %16

16:                                               ; preds = %52, %4
  %17 = load ptr, ptr %6, align 8, !tbaa !20
  %18 = getelementptr inbounds nuw %struct.MpegTSContext, ptr %17, i32 0, i32 9
  store i32 0, ptr %18, align 8, !tbaa !163
  %19 = load i32, ptr %9, align 4, !tbaa !11
  %20 = icmp slt i32 %19, 188
  br i1 %20, label %21, label %22

21:                                               ; preds = %16
  store i32 -1094995529, ptr %5, align 4
  store i32 1, ptr %11, align 4
  br label %57

22:                                               ; preds = %16
  %23 = load ptr, ptr %8, align 8, !tbaa !16
  %24 = getelementptr inbounds i8, ptr %23, i64 0
  %25 = load i8, ptr %24, align 1, !tbaa !66
  %26 = zext i8 %25 to i32
  %27 = icmp ne i32 %26, 71
  br i1 %27, label %28, label %33

28:                                               ; preds = %22
  %29 = load ptr, ptr %8, align 8, !tbaa !16
  %30 = getelementptr inbounds nuw i8, ptr %29, i32 1
  store ptr %30, ptr %8, align 8, !tbaa !16
  %31 = load i32, ptr %9, align 4, !tbaa !11
  %32 = add nsw i32 %31, -1
  store i32 %32, ptr %9, align 4, !tbaa !11
  br label %52

33:                                               ; preds = %22
  %34 = load ptr, ptr %6, align 8, !tbaa !20
  %35 = load ptr, ptr %8, align 8, !tbaa !16
  %36 = load i32, ptr %10, align 4, !tbaa !11
  %37 = load i32, ptr %9, align 4, !tbaa !11
  %38 = sub nsw i32 %36, %37
  %39 = add nsw i32 %38, 188
  %40 = sext i32 %39 to i64
  %41 = call i32 @handle_packet(ptr noundef %34, ptr noundef %35, i64 noundef %40)
  %42 = load ptr, ptr %8, align 8, !tbaa !16
  %43 = getelementptr inbounds i8, ptr %42, i64 188
  store ptr %43, ptr %8, align 8, !tbaa !16
  %44 = load i32, ptr %9, align 4, !tbaa !11
  %45 = sub nsw i32 %44, 188
  store i32 %45, ptr %9, align 4, !tbaa !11
  %46 = load ptr, ptr %6, align 8, !tbaa !20
  %47 = getelementptr inbounds nuw %struct.MpegTSContext, ptr %46, i32 0, i32 9
  %48 = load i32, ptr %47, align 8, !tbaa !163
  %49 = icmp eq i32 %48, 1
  br i1 %49, label %50, label %51

50:                                               ; preds = %33
  br label %53

51:                                               ; preds = %33
  br label %52

52:                                               ; preds = %51, %28
  br label %16

53:                                               ; preds = %50
  %54 = load i32, ptr %10, align 4, !tbaa !11
  %55 = load i32, ptr %9, align 4, !tbaa !11
  %56 = sub nsw i32 %54, %55
  store i32 %56, ptr %5, align 4
  store i32 1, ptr %11, align 4
  br label %57

57:                                               ; preds = %53, %21
  call void @llvm.lifetime.end.p0(i64 4, ptr %10) #12
  %58 = load i32, ptr %5, align 4
  ret i32 %58
}