; Function Attrs: nounwind uwtable
define i32 @avpriv_mpegts_parse_packet(ptr noundef initializes((64, 68), (72, 80)) %0, ptr noundef %1, ptr noundef %2, i32 noundef %3) local_unnamed_addr #0 {
  %5 = getelementptr inbounds nuw i8, ptr %0, i64 72
  store ptr %1, ptr %5, align 8, !tbaa !155
  %6 = getelementptr inbounds nuw i8, ptr %0, i64 64
  store i32 0, ptr %6, align 8, !tbaa !160
  %7 = icmp slt i32 %3, 188
  br i1 %7, label %.loopexit, label %.lr.ph

.lr.ph:                                           ; preds = %4
  %8 = add nuw i32 %3, 188
  br label %9

9:                                                ; preds = %.lr.ph, %22
  %.01721 = phi i32 [ %3, %.lr.ph ], [ %.1, %22 ]
  %.01820 = phi ptr [ %2, %.lr.ph ], [ %.119, %22 ]
  %10 = load i8, ptr %.01820, align 1, !tbaa !9
  %.not = icmp eq i8 %10, 71
  br i1 %.not, label %14, label %11

11:                                               ; preds = %9
  %12 = getelementptr inbounds nuw i8, ptr %.01820, i64 1
  %13 = add nsw i32 %.01721, -1
  br label %22

14:                                               ; preds = %9
  %15 = sub i32 %8, %.01721
  %16 = sext i32 %15 to i64
  %17 = tail call fastcc i32 @handle_packet(ptr noundef nonnull %0, ptr noundef nonnull %.01820, i64 noundef %16)
  %18 = getelementptr inbounds nuw i8, ptr %.01820, i64 188
  %19 = add nsw i32 %.01721, -188
  %20 = load i32, ptr %6, align 8, !tbaa !160
  %21 = icmp eq i32 %20, 1
  br i1 %21, label %24, label %22

22:                                               ; preds = %14, %11
  %.119 = phi ptr [ %12, %11 ], [ %18, %14 ]
  %.1 = phi i32 [ %13, %11 ], [ %19, %14 ]
  store i32 0, ptr %6, align 8, !tbaa !160
  %23 = icmp slt i32 %.1, 188
  br i1 %23, label %.loopexit, label %9

24:                                               ; preds = %14
  %25 = sub nsw i32 %3, %19
  br label %.loopexit

.loopexit:                                        ; preds = %22, %4, %24
  %.0 = phi i32 [ %25, %24 ], [ -1094995529, %4 ], [ -1094995529, %22 ]
  ret i32 %.0
}